; Function Attrs: mustprogress nounwind uwtable
define hidden noundef i64 @_ZN14JfrThreadLocal13jvm_thread_idEPK6Thread(ptr noundef %0) local_unnamed_addr #0 align 2 {
  %2 = getelementptr inbounds i8, ptr %0, i64 680
  %3 = load i64, ptr %2, align 8
  %.not.i = icmp eq i64 %3, 0
  br i1 %.not.i, label %4, label %_ZN14JfrThreadLocal13jvm_thread_idEPK6ThreadPS_.exit

4:                                                ; preds = %1
  %5 = getelementptr inbounds i8, ptr %0, i64 768
  tail call void @_ZN6Thread11SpinAcquireEPViPKc(ptr noundef nonnull %5, ptr noundef null) #13
  %6 = load i64, ptr %2, align 8
  %7 = icmp eq i64 %6, 0
  br i1 %7, label %8, label %_ZN14JfrThreadLocal16assign_thread_idEPK6ThreadPS_.exit.i

8:                                                ; preds = %4
  %9 = load ptr, ptr %0, align 8
  %10 = getelementptr inbounds i8, ptr %9, i64 56
  %11 = load ptr, ptr %10, align 8
  %12 = tail call noundef zeroext i1 %11(ptr noundef nonnull align 8 dereferenceable(888) %0) #13
  br i1 %12, label %13, label %24

13:                                               ; preds = %8
  %14 = tail call noundef ptr @_ZNK10JavaThread9threadObjEv(ptr noundef nonnull align 8 dereferenceable(1800) %0) #13
  %.not.i.i.i = icmp eq ptr %14, null
  br i1 %.not.i.i.i, label %_Z19load_java_thread_idPK6Thread.exit.i.i, label %15

15:                                               ; preds = %13
  %16 = load i32, ptr @_ZN16java_lang_Thread11_tid_offsetE, align 4
  %17 = ptrtoint ptr %14 to i64
  %18 = sext i32 %16 to i64
  %19 = add nsw i64 %18, %17
  %20 = inttoptr i64 %19 to ptr
  %21 = load i64, ptr %20, align 8
  br label %_Z19load_java_thread_idPK6Thread.exit.i.i

_Z19load_java_thread_idPK6Thread.exit.i.i:        ; preds = %15, %13
  %22 = phi i64 [ %21, %15 ], [ 0, %13 ]
  store i64 %22, ptr %2, align 8
  %23 = getelementptr inbounds i8, ptr %0, i64 672
  store volatile i64 %22, ptr %23, align 8
  br label %_ZN14JfrThreadLocal16assign_thread_idEPK6ThreadPS_.exit.i

24:                                               ; preds = %8
  %25 = tail call noundef i64 @_ZN16ThreadIdentifier4nextEv() #13
  store i64 %25, ptr %2, align 8
  br label %_ZN14JfrThreadLocal16assign_thread_idEPK6ThreadPS_.exit.i

_ZN14JfrThreadLocal16assign_thread_idEPK6ThreadPS_.exit.i: ; preds = %24, %_Z19load_java_thread_idPK6Thread.exit.i.i, %4
  %.013.i.i = phi i64 [ %22, %_Z19load_java_thread_idPK6Thread.exit.i.i ], [ %25, %24 ], [ %6, %4 ]
  tail call void @_ZN6Thread11SpinReleaseEPVi(ptr noundef nonnull %5) #13
  br label %_ZN14JfrThreadLocal13jvm_thread_idEPK6ThreadPS_.exit

_ZN14JfrThreadLocal13jvm_thread_idEPK6ThreadPS_.exit: ; preds = %1, %_ZN14JfrThreadLocal16assign_thread_idEPK6ThreadPS_.exit.i
  %26 = phi i64 [ %.013.i.i, %_ZN14JfrThreadLocal16assign_thread_idEPK6ThreadPS_.exit.i ], [ %3, %1 ]
  ret i64 %26
}